; Function Attrs: nounwind uwtable
define ptr @l___private_Lean_Meta_Injective_0__Lean_Meta_mkInjectiveTheoremTypeCore_x3f___lambda__4___boxed(ptr noundef %0, ptr noundef %1, ptr noundef %2, ptr noundef %3, ptr noundef %4, ptr noundef %5, ptr noundef %6, ptr noundef %7, ptr noundef %8, ptr noundef %9, ptr noundef %10, ptr noundef %11) #0 {
  %13 = ptrtoint ptr %3 to i64
  %14 = and i64 %13, 1
  %.not = icmp eq i64 %14, 0
  br i1 %.not, label %15, label %lean_dec.exit

15:                                               ; preds = %12
  %16 = load i32, ptr %3, align 4, !tbaa !8
  %17 = icmp sgt i32 %16, 1
  br i1 %17, label %18, label %20, !prof !11

18:                                               ; preds = %15
  %19 = add nsw i32 %16, -1
  store i32 %19, ptr %3, align 4, !tbaa !8
  br label %lean_dec.exit

20:                                               ; preds = %15
  %.not.i = icmp eq i32 %16, 0
  br i1 %.not.i, label %lean_dec.exit, label %21

21:                                               ; preds = %20
  tail call void @lean_dec_ref_cold(ptr noundef nonnull %3) #5
  br label %lean_dec.exit

lean_dec.exit:                                    ; preds = %21, %20, %18, %12
  %22 = ptrtoint ptr %6 to i64
  %23 = and i64 %22, 1
  %.not.i14 = icmp eq i64 %23, 0
  br i1 %.not.i14, label %24, label %lean_inc.exit.i

24:                                               ; preds = %lean_dec.exit
  %.val.i.i = load i32, ptr %6, align 4, !tbaa !8
  %25 = icmp sgt i32 %.val.i.i, 0
  br i1 %25, label %26, label %28, !prof !11

26:                                               ; preds = %24
  %27 = add nuw i32 %.val.i.i, 1
  store i32 %27, ptr %6, align 4, !tbaa !8
  br label %lean_inc.exit.i

28:                                               ; preds = %24
  %.not.i.i = icmp eq i32 %.val.i.i, 0
  br i1 %.not.i.i, label %lean_inc.exit.i, label %29

29:                                               ; preds = %28
  tail call void @lean_inc_ref_cold(ptr noundef nonnull %6) #5
  br label %lean_inc.exit.i

lean_inc.exit.i:                                  ; preds = %29, %28, %26, %lean_dec.exit
  tail call void @lean_inc_heartbeat() #5
  %30 = tail call noalias ptr @mi_malloc_small(i64 noundef 80) #5
  %31 = icmp eq ptr %30, null
  br i1 %31, label %32, label %l___private_Lean_Meta_Injective_0__Lean_Meta_mkInjectiveTheoremTypeCore_x3f___lambda__4.exit

32:                                               ; preds = %lean_inc.exit.i
  tail call void @lean_internal_panic_out_of_memory() #6
  unreachable

l___private_Lean_Meta_Injective_0__Lean_Meta_mkInjectiveTheoremTypeCore_x3f___lambda__4.exit: ; preds = %lean_inc.exit.i
  %33 = and i64 %13, 510
  %34 = or disjoint i64 %33, 1
  %35 = inttoptr i64 %34 to ptr
  %36 = getelementptr inbounds nuw i8, ptr %30, i64 4
  store i32 1, ptr %30, align 4, !tbaa !8
  store i32 -184549296, ptr %36, align 4
  %37 = getelementptr inbounds nuw i8, ptr %30, i64 8
  store ptr @l___private_Lean_Meta_Injective_0__Lean_Meta_mkInjectiveTheoremTypeCore_x3f___lambda__3___boxed, ptr %37, align 8, !tbaa !4
  %38 = getelementptr inbounds nuw i8, ptr %30, i64 16
  store i16 14, ptr %38, align 8, !tbaa !15
  %39 = getelementptr inbounds nuw i8, ptr %30, i64 18
  store i16 7, ptr %39, align 2, !tbaa !15
  %40 = getelementptr inbounds nuw i8, ptr %30, i64 24
  store ptr %0, ptr %40, align 8, !tbaa !4
  %41 = getelementptr inbounds nuw i8, ptr %30, i64 32
  store ptr %1, ptr %41, align 8, !tbaa !4
  %42 = getelementptr inbounds nuw i8, ptr %30, i64 40
  store ptr %5, ptr %42, align 8, !tbaa !4
  %43 = getelementptr inbounds nuw i8, ptr %30, i64 48
  store ptr %2, ptr %43, align 8, !tbaa !4
  %44 = getelementptr inbounds nuw i8, ptr %30, i64 56
  store ptr %35, ptr %44, align 8, !tbaa !4
  %45 = getelementptr inbounds nuw i8, ptr %30, i64 64
  store ptr %4, ptr %45, align 8, !tbaa !4
  %46 = getelementptr inbounds nuw i8, ptr %30, i64 72
  store ptr %6, ptr %46, align 8, !tbaa !4
  %47 = tail call ptr @l_Lean_Meta_forallTelescope___at_Lean_Meta_mapForallTelescope_x27___spec__1___rarg(ptr noundef %6, ptr noundef nonnull %30, i8 noundef zeroext 0, ptr noundef %7, ptr noundef %8, ptr noundef %9, ptr noundef %10, ptr noundef %11) #5
  ret ptr %47
}